; Function Attrs: mustprogress nounwind uwtable
define hidden void @_ZN4llvh3sys7Process6GetEnvB5cxx11ENS_9StringRefE(ptr noalias sret(%"class.llvh::Optional") align 8 initializes((32, 33)) %agg.result, ptr %Name.coerce0, i64 %Name.coerce1) local_unnamed_addr #0 align 2 {
entry:
  %ref.tmp.i = alloca %"class.std::allocator", align 1
  %NameStr = alloca %"class.std::__cxx11::basic_string", align 8
  %ref.tmp = alloca %"class.std::__cxx11::basic_string", align 8
  %ref.tmp2 = alloca %"class.std::allocator", align 1
  call void @llvm.lifetime.start.p0(i64 1, ptr nonnull %ref.tmp.i)
  %tobool.not.i = icmp eq ptr %Name.coerce0, null
  br i1 %tobool.not.i, label %if.then.i, label %if.end.i

if.then.i:                                        ; preds = %entry
  call void @_ZNSt7__cxx1112basic_stringIcSt11char_traitsIcESaIcEEC1Ev(ptr noundef nonnull align 8 dereferenceable(32) %NameStr) #18
  br label %_ZNK4llvh9StringRef3strB5cxx11Ev.exit

if.end.i:                                         ; preds = %entry
  call void @_ZNSaIcEC1Ev(ptr noundef nonnull align 1 dereferenceable(1) %ref.tmp.i) #18, !noalias !12
  call void @_ZNSt7__cxx1112basic_stringIcSt11char_traitsIcESaIcEEC1EPKcmRKS3_(ptr noundef nonnull align 8 dereferenceable(32) %NameStr, ptr noundef nonnull %Name.coerce0, i64 noundef %Name.coerce1, ptr noundef nonnull align 1 dereferenceable(1) %ref.tmp.i) #18
  call void @_ZNSaIcED1Ev(ptr noundef nonnull align 1 dereferenceable(1) %ref.tmp.i) #18
  br label %_ZNK4llvh9StringRef3strB5cxx11Ev.exit

_ZNK4llvh9StringRef3strB5cxx11Ev.exit:            ; preds = %if.then.i, %if.end.i
  call void @llvm.lifetime.end.p0(i64 1, ptr nonnull %ref.tmp.i)
  %call = call noundef ptr @_ZNKSt7__cxx1112basic_stringIcSt11char_traitsIcESaIcEE5c_strEv(ptr noundef nonnull align 8 dereferenceable(32) %NameStr) #18
  %call1 = call ptr @getenv(ptr noundef %call) #18
  %tobool.not = icmp eq ptr %call1, null
  br i1 %tobool.not, label %if.then, label %_ZNSt7__cxx1112basic_stringIcSt11char_traitsIcESaIcEEC2IS3_EEPKcRKS3_.exit

if.then:                                          ; preds = %_ZNK4llvh9StringRef3strB5cxx11Ev.exit
  %hasVal.i.i = getelementptr inbounds nuw i8, ptr %agg.result, i64 32
  store i8 0, ptr %hasVal.i.i, align 8
  br label %cleanup

_ZNSt7__cxx1112basic_stringIcSt11char_traitsIcESaIcEEC2IS3_EEPKcRKS3_.exit: ; preds = %_ZNK4llvh9StringRef3strB5cxx11Ev.exit
  call void @_ZNSaIcEC1Ev(ptr noundef nonnull align 1 dereferenceable(1) %ref.tmp2) #18
  %call.i = call noundef ptr @_ZNSt7__cxx1112basic_stringIcSt11char_traitsIcESaIcEE13_M_local_dataEv(ptr noundef nonnull align 8 dereferenceable(32) %ref.tmp) #18
  call void @_ZNSt7__cxx1112basic_stringIcSt11char_traitsIcESaIcEE12_Alloc_hiderC1EPcRKS3_(ptr noundef nonnull align 8 dereferenceable(32) %ref.tmp, ptr noundef %call.i, ptr noundef nonnull align 1 dereferenceable(1) %ref.tmp2) #18
  %call.i.i = call noundef i64 @strlen(ptr noundef nonnull dereferenceable(1) %call1) #18
  %add.ptr.i = getelementptr inbounds i8, ptr %call1, i64 %call.i.i
  call void @_ZNSt7__cxx1112basic_stringIcSt11char_traitsIcESaIcEE12_M_constructIPKcEEvT_S8_St20forward_iterator_tag(ptr noundef nonnull align 8 dereferenceable(32) %ref.tmp, ptr noundef nonnull %call1, ptr noundef nonnull %add.ptr.i)
  %hasVal.i.i4 = getelementptr inbounds nuw i8, ptr %agg.result, i64 32
  store i8 1, ptr %hasVal.i.i4, align 8
  call void @_ZNSt7__cxx1112basic_stringIcSt11char_traitsIcESaIcEEC1EOS4_(ptr noundef nonnull align 8 dereferenceable(40) %agg.result, ptr noundef nonnull align 8 dereferenceable(32) %ref.tmp) #18
  call void @_ZNSt7__cxx1112basic_stringIcSt11char_traitsIcESaIcEED1Ev(ptr noundef nonnull align 8 dereferenceable(32) %ref.tmp) #18
  call void @_ZNSaIcED1Ev(ptr noundef nonnull align 1 dereferenceable(1) %ref.tmp2) #18
  br label %cleanup

cleanup:                                          ; preds = %_ZNSt7__cxx1112basic_stringIcSt11char_traitsIcESaIcEEC2IS3_EEPKcRKS3_.exit, %if.then
  call void @_ZNSt7__cxx1112basic_stringIcSt11char_traitsIcESaIcEED1Ev(ptr noundef nonnull align 8 dereferenceable(32) %NameStr) #18
  ret void
}